target datalayout = "e-m:e-p270:32:32-p271:32:32-p272:64:64-i64:64-i128:128-f80:128-n8:16:32:64-S128"
target triple = "x86_64-pc-linux-gnu"

@.str.3 = private unnamed_addr constant [9 x i8] c"Coverage\00", align 1
@.str.4 = private unnamed_addr constant [11 x i8] c"supported?\00", align 1
@.str.5 = private unnamed_addr constant [6 x i8] c"setup\00", align 1
@.str.6 = private unnamed_addr constant [6 x i8] c"start\00", align 1
@.str.7 = private unnamed_addr constant [7 x i8] c"resume\00", align 1
@.str.8 = private unnamed_addr constant [8 x i8] c"suspend\00", align 1
@.str.9 = private unnamed_addr constant [7 x i8] c"result\00", align 1
@.str.10 = private unnamed_addr constant [12 x i8] c"peek_result\00", align 1
@.str.11 = private unnamed_addr constant [6 x i8] c"state\00", align 1
@.str.12 = private unnamed_addr constant [9 x i8] c"running?\00", align 1
@me2counter = internal global i64 4, align 8

; Function Attrs: nounwind sspstrong uwtable
define void @Init_coverage() #0 {
  %1 = alloca i64, align 8
  call void @llvm.lifetime.start.p0(i64 8, ptr %1) #16
  %2 = call i64 @rb_define_module(ptr noundef @.str.3)
  store i64 %2, ptr %1, align 8, !tbaa !6
  %3 = load i64, ptr %1, align 8, !tbaa !6
  call void @rb_define_singleton_method(i64 noundef %3, ptr noundef @.str.4, ptr noundef @rb_coverage_supported, i32 noundef 1)
  %4 = load i64, ptr %1, align 8, !tbaa !6
  call void @rb_define_module_function(i64 noundef %4, ptr noundef @.str.5, ptr noundef @rb_coverage_setup, i32 noundef -1)
  %5 = load i64, ptr %1, align 8, !tbaa !6
  call void @rb_define_module_function(i64 noundef %5, ptr noundef @.str.6, ptr noundef @rb_coverage_start, i32 noundef -1)
  %6 = load i64, ptr %1, align 8, !tbaa !6
  call void @rb_define_module_function(i64 noundef %6, ptr noundef @.str.7, ptr noundef @rb_coverage_resume, i32 noundef 0)
  %7 = load i64, ptr %1, align 8, !tbaa !6
  call void @rb_define_module_function(i64 noundef %7, ptr noundef @.str.8, ptr noundef @rb_coverage_suspend, i32 noundef 0)
  %8 = load i64, ptr %1, align 8, !tbaa !6
  call void @rb_define_module_function(i64 noundef %8, ptr noundef @.str.9, ptr noundef @rb_coverage_result, i32 noundef -1)
  %9 = load i64, ptr %1, align 8, !tbaa !6
  call void @rb_define_module_function(i64 noundef %9, ptr noundef @.str.10, ptr noundef @rb_coverage_peek_result, i32 noundef 0)
  %10 = load i64, ptr %1, align 8, !tbaa !6
  call void @rb_define_module_function(i64 noundef %10, ptr noundef @.str.11, ptr noundef @rb_coverage_state, i32 noundef 0)
  %11 = load i64, ptr %1, align 8, !tbaa !6
  call void @rb_define_module_function(i64 noundef %11, ptr noundef @.str.12, ptr noundef @rb_coverage_running, i32 noundef 0)
  call void @rb_global_variable(ptr noundef @me2counter)
  call void @llvm.lifetime.end.p0(i64 8, ptr %1) #16
  ret void
}