; Function Attrs: nounwind sspstrong uwtable
define void @Init_coverage() local_unnamed_addr #0 {
  %1 = tail call i64 @rb_define_module(ptr noundef nonnull @.str.3) #9
  tail call void @rb_define_singleton_method(i64 noundef %1, ptr noundef nonnull @.str.4, ptr noundef nonnull @rb_coverage_supported, i32 noundef 1) #9
  tail call void @rb_define_module_function(i64 noundef %1, ptr noundef nonnull @.str.5, ptr noundef nonnull @rb_coverage_setup, i32 noundef -1) #9
  tail call void @rb_define_module_function(i64 noundef %1, ptr noundef nonnull @.str.6, ptr noundef nonnull @rb_coverage_start, i32 noundef -1) #9
  tail call void @rb_define_module_function(i64 noundef %1, ptr noundef nonnull @.str.7, ptr noundef nonnull @rb_coverage_resume, i32 noundef 0) #9
  tail call void @rb_define_module_function(i64 noundef %1, ptr noundef nonnull @.str.8, ptr noundef nonnull @rb_coverage_suspend, i32 noundef 0) #9
  tail call void @rb_define_module_function(i64 noundef %1, ptr noundef nonnull @.str.9, ptr noundef nonnull @rb_coverage_result, i32 noundef -1) #9
  tail call void @rb_define_module_function(i64 noundef %1, ptr noundef nonnull @.str.10, ptr noundef nonnull @rb_coverage_peek_result, i32 noundef 0) #9
  tail call void @rb_define_module_function(i64 noundef %1, ptr noundef nonnull @.str.11, ptr noundef nonnull @rb_coverage_state, i32 noundef 0) #9
  tail call void @rb_define_module_function(i64 noundef %1, ptr noundef nonnull @.str.12, ptr noundef nonnull @rb_coverage_running, i32 noundef 0) #9
  tail call void @rb_global_variable(ptr noundef nonnull @me2counter) #9
  ret void
}